; Function Attrs: mustprogress uwtable
define void @_ZN13SettingDialog5applyEv(ptr noundef nonnull align 8 dereferenceable(320) %0) local_unnamed_addr #3 align 2 personality ptr @__gxx_personality_v0 {
  %2 = alloca %"class.std::shared_ptr", align 8
  %3 = getelementptr inbounds i8, ptr %0, i64 48
  %4 = load ptr, ptr %3, align 8
  %5 = getelementptr inbounds i8, ptr %0, i64 72
  %6 = tail call ptr @_ZN22RichParameterListFrame5beginEv(ptr noundef nonnull align 8 dereferenceable(200) %5)
  %7 = getelementptr inbounds i8, ptr %6, i64 40
  %8 = load ptr, ptr %7, align 8
  %9 = load ptr, ptr %8, align 8
  %10 = getelementptr inbounds i8, ptr %9, i64 416
  %11 = load ptr, ptr %10, align 8
  call void %11(ptr dead_on_unwind nonnull writable sret(%"class.std::shared_ptr") align 8 %2, ptr noundef nonnull align 8 dereferenceable(99) %8)
  %12 = load ptr, ptr %2, align 8
  invoke void @_ZN13RichParameter8setValueERK5Valueb(ptr noundef nonnull align 8 dereferenceable(56) %4, ptr noundef nonnull align 8 dereferenceable(8) %12, i1 noundef zeroext false)
          to label %13 unwind label %51

13:                                               ; preds = %1
  %14 = getelementptr inbounds i8, ptr %2, i64 8
  %15 = load ptr, ptr %14, align 8
  %.not.i.i.i = icmp eq ptr %15, null
  br i1 %.not.i.i.i, label %_ZNSt10shared_ptrI5ValueED2Ev.exit, label %16

16:                                               ; preds = %13
  %17 = getelementptr inbounds i8, ptr %15, i64 8
  %18 = load atomic i64, ptr %17 acquire, align 8
  %19 = icmp eq i64 %18, 4294967297
  %20 = trunc i64 %18 to i32
  br i1 %19, label %21, label %26

21:                                               ; preds = %16
  store i32 0, ptr %17, align 8
  %22 = getelementptr inbounds i8, ptr %15, i64 12
  store i32 0, ptr %22, align 4
  %23 = load ptr, ptr %15, align 8
  %24 = getelementptr inbounds i8, ptr %23, i64 16
  %25 = load ptr, ptr %24, align 8
  call void %25(ptr noundef nonnull align 8 dereferenceable(16) %15) #11
  br label %_ZNSt16_Sp_counted_baseILN9__gnu_cxx12_Lock_policyE2EE24_M_release_last_use_coldEv.exit.sink.split.i.i.i.i

26:                                               ; preds = %16
  %27 = load i8, ptr @__libc_single_threaded, align 1
  %.not.i.i.i.i = icmp eq i8 %27, 0
  br i1 %.not.i.i.i.i, label %30, label %28

28:                                               ; preds = %26
  %29 = add nsw i32 %20, -1
  store i32 %29, ptr %17, align 4
  br label %32

30:                                               ; preds = %26
  %31 = atomicrmw volatile add ptr %17, i32 -1 acq_rel, align 4
  br label %32

32:                                               ; preds = %30, %28
  %.0.i.i.i.i = phi i32 [ %20, %28 ], [ %31, %30 ]
  %33 = icmp eq i32 %.0.i.i.i.i, 1
  br i1 %33, label %34, label %_ZNSt10shared_ptrI5ValueED2Ev.exit

34:                                               ; preds = %32
  %35 = load ptr, ptr %15, align 8
  %36 = getelementptr inbounds i8, ptr %35, i64 16
  %37 = load ptr, ptr %36, align 8
  call void %37(ptr noundef nonnull align 8 dereferenceable(16) %15) #11
  %38 = getelementptr inbounds i8, ptr %15, i64 12
  %39 = load i8, ptr @__libc_single_threaded, align 1
  %.not.i.i.i.i.i.i = icmp eq i8 %39, 0
  br i1 %.not.i.i.i.i.i.i, label %43, label %40

40:                                               ; preds = %34
  %41 = load i32, ptr %38, align 4
  %42 = add nsw i32 %41, -1
  store i32 %42, ptr %38, align 4
  br label %45

43:                                               ; preds = %34
  %44 = atomicrmw volatile add ptr %38, i32 -1 acq_rel, align 4
  br label %45

45:                                               ; preds = %43, %40
  %.0.i.i.i.i.i.i = phi i32 [ %41, %40 ], [ %44, %43 ]
  %46 = icmp eq i32 %.0.i.i.i.i.i.i, 1
  br i1 %46, label %_ZNSt16_Sp_counted_baseILN9__gnu_cxx12_Lock_policyE2EE24_M_release_last_use_coldEv.exit.sink.split.i.i.i.i, label %_ZNSt10shared_ptrI5ValueED2Ev.exit

_ZNSt16_Sp_counted_baseILN9__gnu_cxx12_Lock_policyE2EE24_M_release_last_use_coldEv.exit.sink.split.i.i.i.i: ; preds = %45, %21
  %47 = load ptr, ptr %15, align 8
  %48 = getelementptr inbounds i8, ptr %47, i64 24
  %49 = load ptr, ptr %48, align 8
  call void %49(ptr noundef nonnull align 8 dereferenceable(16) %15) #11
  br label %_ZNSt10shared_ptrI5ValueED2Ev.exit

_ZNSt10shared_ptrI5ValueED2Ev.exit:               ; preds = %13, %32, %45, %_ZNSt16_Sp_counted_baseILN9__gnu_cxx12_Lock_policyE2EE24_M_release_last_use_coldEv.exit.sink.split.i.i.i.i
  %50 = load ptr, ptr %3, align 8
  call void @_ZN13SettingDialog18applySettingSignalERK13RichParameter(ptr noundef nonnull align 8 dereferenceable(320) %0, ptr noundef nonnull align 8 dereferenceable(56) %50)
  ret void

51:                                               ; preds = %1
  %52 = landingpad { ptr, i32 }
          cleanup
  call void @_ZNSt10shared_ptrI5ValueED2Ev(ptr noundef nonnull align 8 dereferenceable(16) %2) #11
  resume { ptr, i32 } %52
}